target datalayout = "e-m:e-p270:32:32-p271:32:32-p272:64:64-i64:64-i128:128-f80:128-n8:16:32:64-S128"
target triple = "x86_64-pc-linux-gnu"

%struct.strvec = type { ptr, i64, i64 }
%struct.sparse_checkout_add_opts = type { i32, i32 }

@the_repository = external global ptr, align 8
@core_apply_sparse_checkout = external global i32, align 4
@add_opts = internal global %struct.sparse_checkout_add_opts zeroinitializer, align 4
@__const.sparse_checkout_add.patterns = private unnamed_addr constant %struct.strvec { ptr @empty_strvec, i64 0, i64 0 }, align 8
@.str.60 = private unnamed_addr constant [29 x i8] c"no sparse-checkout to add to\00", align 1
@builtin_sparse_checkout_add_usage = internal constant [2 x ptr] [ptr @.str.61, ptr null], align 16

; Function Attrs: nounwind uwtable
define internal i32 @sparse_checkout_add(i32 noundef %0, ptr noundef %1, ptr noundef %2, ptr noundef %3) #0 {
  %5 = alloca i32, align 4
  %6 = alloca ptr, align 8
  %7 = alloca ptr, align 8
  %8 = alloca ptr, align 8
  %9 = alloca %struct.strvec, align 8
  %10 = alloca i32, align 4
  %11 = alloca i32, align 4
  store i32 %0, ptr %5, align 4, !tbaa !4
  store ptr %1, ptr %6, align 8, !tbaa !8
  store ptr %2, ptr %7, align 8, !tbaa !11
  store ptr %3, ptr %8, align 8, !tbaa !13
  call void @llvm.lifetime.start.p0(i64 24, ptr %9) #9
  call void @llvm.memcpy.p0.p0.i64(ptr align 8 %9, ptr align 8 @__const.sparse_checkout_add.patterns, i64 24, i1 false)
  call void @llvm.lifetime.start.p0(i64 4, ptr %10) #9
  call void @setup_work_tree()
  %12 = load i32, ptr @core_apply_sparse_checkout, align 4, !tbaa !4
  %13 = icmp ne i32 %12, 0
  br i1 %13, label %16, label %14

14:                                               ; preds = %4
  %15 = call ptr @_(ptr noundef @.str.60)
  call void (ptr, ...) @die(ptr noundef %15) #10
  unreachable

16:                                               ; preds = %4
  %17 = load ptr, ptr @the_repository, align 8, !tbaa !13
  %18 = call i32 @repo_read_index(ptr noundef %17)
  %19 = load i32, ptr %5, align 4, !tbaa !4
  %20 = load ptr, ptr %6, align 8, !tbaa !8
  %21 = load ptr, ptr %7, align 8, !tbaa !11
  %22 = call i32 @parse_options(i32 noundef %19, ptr noundef %20, ptr noundef %21, ptr noundef @sparse_checkout_add.builtin_sparse_checkout_add_options, ptr noundef @builtin_sparse_checkout_add_usage, i32 noundef 0)
  store i32 %22, ptr %5, align 4, !tbaa !4
  call void @llvm.lifetime.start.p0(i64 4, ptr %11) #9
  store i32 0, ptr %11, align 4, !tbaa !4
  br label %23

23:                                               ; preds = %35, %16
  %24 = load i32, ptr %11, align 4, !tbaa !4
  %25 = load i32, ptr %5, align 4, !tbaa !4
  %26 = icmp slt i32 %24, %25
  br i1 %26, label %28, label %27

27:                                               ; preds = %23
  call void @llvm.lifetime.end.p0(i64 4, ptr %11) #9
  br label %38

28:                                               ; preds = %23
  %29 = load ptr, ptr %6, align 8, !tbaa !8
  %30 = load i32, ptr %11, align 4, !tbaa !4
  %31 = sext i32 %30 to i64
  %32 = getelementptr inbounds ptr, ptr %29, i64 %31
  %33 = load ptr, ptr %32, align 8, !tbaa !11
  %34 = call ptr @strvec_push(ptr noundef %9, ptr noundef %33)
  br label %35

35:                                               ; preds = %28
  %36 = load i32, ptr %11, align 4, !tbaa !4
  %37 = add nsw i32 %36, 1
  store i32 %37, ptr %11, align 4, !tbaa !4
  br label %23, !llvm.loop !78

38:                                               ; preds = %27
  %39 = load ptr, ptr %7, align 8, !tbaa !11
  %40 = load i32, ptr @add_opts, align 4, !tbaa !79
  call void @sanitize_paths(ptr noundef %9, ptr noundef %39, i32 noundef %40)
  %41 = load i32, ptr getelementptr inbounds nuw (%struct.sparse_checkout_add_opts, ptr @add_opts, i32 0, i32 1), align 4, !tbaa !81
  %42 = call i32 @modify_pattern_list(ptr noundef %9, i32 noundef %41, i32 noundef 1)
  store i32 %42, ptr %10, align 4, !tbaa !4
  call void @strvec_clear(ptr noundef %9)
  %43 = load i32, ptr %10, align 4, !tbaa !4
  call void @llvm.lifetime.end.p0(i64 4, ptr %10) #9
  call void @llvm.lifetime.end.p0(i64 24, ptr %9) #9
  ret i32 %43
}