; Function Attrs: nounwind uwtable
define internal i32 @sparse_checkout_add(i32 noundef %0, ptr noundef %1, ptr noundef %2, ptr readnone captures(none) %3) #0 {
  %5 = alloca %struct.strvec, align 8
  call void @llvm.lifetime.start.p0(i64 24, ptr nonnull %5) #13
  call void @llvm.memcpy.p0.p0.i64(ptr noundef nonnull align 8 dereferenceable(24) %5, ptr noundef nonnull align 8 dereferenceable(24) @__const.sparse_checkout_add.patterns, i64 24, i1 false)
  tail call void @setup_work_tree() #13
  %6 = load i32, ptr @core_apply_sparse_checkout, align 4, !tbaa !37
  %.not = icmp eq i32 %6, 0
  br i1 %.not, label %7, label %9

7:                                                ; preds = %4
  %8 = tail call fastcc ptr @_(ptr noundef nonnull @.str.60)
  tail call void (ptr, ...) @die(ptr noundef %8) #14
  unreachable

9:                                                ; preds = %4
  %10 = load ptr, ptr @the_repository, align 8, !tbaa !17
  %11 = tail call i32 @repo_read_index(ptr noundef %10) #13
  %12 = tail call i32 @parse_options(i32 noundef %0, ptr noundef %1, ptr noundef %2, ptr noundef nonnull @sparse_checkout_add.builtin_sparse_checkout_add_options, ptr noundef nonnull @builtin_sparse_checkout_add_usage, i32 noundef 0) #13
  %13 = icmp sgt i32 %12, 0
  br i1 %13, label %.lr.ph.preheader, label %._crit_edge

.lr.ph.preheader:                                 ; preds = %9
  %wide.trip.count = zext nneg i32 %12 to i64
  br label %.lr.ph

._crit_edge:                                      ; preds = %.lr.ph, %9
  %14 = load i32, ptr @add_opts, align 4, !tbaa !71
  call fastcc void @sanitize_paths(ptr noundef %5, ptr noundef %2, i32 noundef %14)
  %15 = load i32, ptr getelementptr inbounds nuw (i8, ptr @add_opts, i64 4), align 4, !tbaa !73
  %16 = call fastcc i32 @modify_pattern_list(ptr noundef %5, i32 noundef %15, i32 noundef 1)
  call void @strvec_clear(ptr noundef nonnull %5) #13
  call void @llvm.lifetime.end.p0(i64 24, ptr nonnull %5) #13
  ret i32 %16

.lr.ph:                                           ; preds = %.lr.ph.preheader, %.lr.ph
  %indvars.iv = phi i64 [ 0, %.lr.ph.preheader ], [ %indvars.iv.next, %.lr.ph ]
  %17 = getelementptr inbounds nuw ptr, ptr %1, i64 %indvars.iv
  %18 = load ptr, ptr %17, align 8, !tbaa !68
  %19 = call ptr @strvec_push(ptr noundef nonnull %5, ptr noundef %18) #13
  %indvars.iv.next = add nuw nsw i64 %indvars.iv, 1
  %exitcond.not = icmp eq i64 %indvars.iv.next, %wide.trip.count
  br i1 %exitcond.not, label %._crit_edge, label %.lr.ph, !llvm.loop !74
}